; Function Attrs: mustprogress nounwind uwtable
define hidden i8 @_ZNK15fieldDescriptor17initial_value_tagEv(ptr nocapture noundef nonnull readonly align 8 dereferenceable(48) %0) local_unnamed_addr #1 align 2 {
  %2 = getelementptr inbounds i8, ptr %0, i64 32
  %3 = load ptr, ptr %2, align 8
  %.sroa.1.0..sroa_idx.i = getelementptr inbounds i8, ptr %0, i64 20
  %.sroa.1.0.copyload.i = load i16, ptr %.sroa.1.0..sroa_idx.i, align 4
  %4 = getelementptr inbounds i8, ptr %3, i64 8
  %5 = load ptr, ptr %4, align 8
  %6 = getelementptr inbounds i8, ptr %5, i64 4
  %7 = zext i16 %.sroa.1.0.copyload.i to i64
  %8 = getelementptr inbounds i8, ptr %6, i64 %7
  %9 = load volatile i8, ptr %8, align 1
  tail call void asm sideeffect "", "~{memory},~{dirflag},~{fpsr},~{flags}"() #9, !srcloc !6
  ret i8 %9
}